; Function Attrs: nounwind uwtable
define noundef nonnull ptr @l_Lean_Meta_TransparencyMode_lt___boxed(ptr noundef %0, ptr noundef %1) local_unnamed_addr #1 {
  %3 = ptrtoint ptr %0 to i64
  %4 = lshr i64 %3, 1
  %5 = trunc i64 %4 to i8
  %6 = and i64 %3, 1
  %.not = icmp eq i64 %6, 0
  br i1 %.not, label %7, label %lean_dec.exit7

7:                                                ; preds = %2
  %8 = load i32, ptr %0, align 4, !tbaa !4
  %9 = icmp sgt i32 %8, 1
  br i1 %9, label %10, label %12, !prof !9

10:                                               ; preds = %7
  %11 = add nsw i32 %8, -1
  store i32 %11, ptr %0, align 4, !tbaa !4
  br label %lean_dec.exit7

12:                                               ; preds = %7
  %.not.i = icmp eq i32 %8, 0
  br i1 %.not.i, label %lean_dec.exit7, label %13

13:                                               ; preds = %12
  tail call void @lean_dec_ref_cold(ptr noundef nonnull %0) #4
  br label %lean_dec.exit7

lean_dec.exit7:                                   ; preds = %13, %12, %10, %2
  %14 = ptrtoint ptr %1 to i64
  %15 = lshr i64 %14, 1
  %16 = trunc i64 %15 to i8
  %17 = and i64 %14, 1
  %.not10 = icmp eq i64 %17, 0
  br i1 %.not10, label %18, label %lean_dec.exit

18:                                               ; preds = %lean_dec.exit7
  %19 = load i32, ptr %1, align 4, !tbaa !4
  %20 = icmp sgt i32 %19, 1
  br i1 %20, label %21, label %23, !prof !9

21:                                               ; preds = %18
  %22 = add nsw i32 %19, -1
  store i32 %22, ptr %1, align 4, !tbaa !4
  br label %lean_dec.exit

23:                                               ; preds = %18
  %.not.i8 = icmp eq i32 %19, 0
  br i1 %.not.i8, label %lean_dec.exit, label %24

24:                                               ; preds = %23
  tail call void @lean_dec_ref_cold(ptr noundef nonnull %1) #4
  br label %lean_dec.exit

lean_dec.exit:                                    ; preds = %24, %23, %21, %lean_dec.exit7
  switch i8 %5, label %l_Lean_Meta_TransparencyMode_lt.exit [
    i8 0, label %l_Lean_Meta_TransparencyMode_lt.exit.thread
    i8 1, label %25
    i8 2, label %27
  ]

25:                                               ; preds = %lean_dec.exit
  %26 = icmp eq i8 %16, 0
  br i1 %26, label %29, label %l_Lean_Meta_TransparencyMode_lt.exit.thread

27:                                               ; preds = %lean_dec.exit
  %.not13 = icmp eq i8 %16, 2
  br i1 %.not13, label %l_Lean_Meta_TransparencyMode_lt.exit.thread, label %29

l_Lean_Meta_TransparencyMode_lt.exit:             ; preds = %lean_dec.exit
  %28 = and i8 %16, -2
  %switch.i.not = icmp eq i8 %28, 2
  br i1 %switch.i.not, label %l_Lean_Meta_TransparencyMode_lt.exit.thread, label %29

29:                                               ; preds = %27, %25, %l_Lean_Meta_TransparencyMode_lt.exit
  br label %l_Lean_Meta_TransparencyMode_lt.exit.thread

l_Lean_Meta_TransparencyMode_lt.exit.thread:      ; preds = %lean_dec.exit, %27, %25, %l_Lean_Meta_TransparencyMode_lt.exit, %29
  %30 = phi ptr [ inttoptr (i64 3 to ptr), %29 ], [ inttoptr (i64 1 to ptr), %l_Lean_Meta_TransparencyMode_lt.exit ], [ inttoptr (i64 1 to ptr), %25 ], [ inttoptr (i64 1 to ptr), %27 ], [ inttoptr (i64 1 to ptr), %lean_dec.exit ]
  ret ptr %30
}